target datalayout = "e-m:e-p270:32:32-p271:32:32-p272:64:64-i64:64-i128:128-f80:128-n8:16:32:64-S128"
target triple = "x86_64-pc-linux-gnu"

%"class.clang::ASTDeclReader" = type <{ ptr, %"class.clang::ASTDeclMerger", ptr, %"struct.clang::ASTReader::RecordLocation", %"class.clang::GlobalDeclID", %"class.clang::SourceLocation", [4 x i8], i64, i32, [4 x i8], %"class.clang::GlobalDeclID", ptr, i8, [7 x i8] }>
%"class.clang::ASTDeclMerger" = type { ptr }
%"struct.clang::ASTReader::RecordLocation" = type { ptr, i64 }
%"class.clang::SourceLocation" = type { i32 }
%"class.clang::GlobalDeclID" = type { %"class.clang::DeclIDBase" }
%"class.clang::DeclIDBase" = type { i64 }
%"class.llvm::SmallVectorImpl" = type { %"class.llvm::SmallVectorTemplateBase" }
%"class.llvm::SmallVectorTemplateBase" = type { %"class.llvm::SmallVectorTemplateCommon" }
%"class.llvm::SmallVectorTemplateCommon" = type { %"class.llvm::SmallVectorBase" }
%"class.llvm::SmallVectorBase" = type { ptr, i32, i32 }
%"class.llvm::SmallVector.44" = type { %"class.llvm::SmallVectorImpl", %"struct.llvm::SmallVectorStorage.45" }
%"struct.llvm::SmallVectorStorage.45" = type { [512 x i8] }
%"class.clang::Decl.base" = type <{ ptr, %"class.llvm::PointerIntPair.829", %"class.llvm::PointerUnion", %"class.clang::SourceLocation", i32, i8 }>
%"class.llvm::PointerIntPair.829" = type { %"struct.llvm::detail::PunnedPointer.830" }
%"struct.llvm::detail::PunnedPointer.830" = type { [8 x i8] }
%"class.llvm::PointerUnion" = type { %"class.llvm::pointer_union_detail::PointerUnionMembers" }
%"class.llvm::pointer_union_detail::PointerUnionMembers" = type { %"class.llvm::pointer_union_detail::PointerUnionMembers.831" }
%"class.llvm::pointer_union_detail::PointerUnionMembers.831" = type { %"class.llvm::pointer_union_detail::PointerUnionMembers.832" }
%"class.llvm::pointer_union_detail::PointerUnionMembers.832" = type { %"class.llvm::PointerIntPair.833" }
%"class.llvm::PointerIntPair.833" = type { %"struct.llvm::detail::PunnedPointer.834" }
%"struct.llvm::detail::PunnedPointer.834" = type { [8 x i8] }
%"class.clang::DeclContext" = type { ptr, %union.anon.840, ptr, ptr }
%union.anon.840 = type { %"class.clang::DeclContext::RecordDeclBitfields" }
%"class.clang::DeclContext::RecordDeclBitfields" = type { i64 }
%"class.clang::ASTRecordReader" = type { %"class.clang::serialization::DataStreamBasicReader", ptr, ptr, i32, %"class.llvm::SmallVector.44" }
%"class.clang::serialization::DataStreamBasicReader" = type { %"class.clang::serialization::BasicReaderBase" }
%"class.clang::serialization::BasicReaderBase" = type { ptr }
%"class.clang::TopLevelStmtDecl" = type <{ %"class.clang::Decl.base", [7 x i8], %"class.clang::DeclContext", ptr, i8, [7 x i8] }>

; Function Attrs: mustprogress nounwind uwtable
define linkonce_odr hidden noundef ptr @_ZN5clang15ASTRecordReader8readStmtEv(ptr noundef nonnull align 8 dereferenceable(560) %0) #0 comdat align 2 {
  %2 = alloca ptr, align 8
  store ptr %0, ptr %2, align 8
  %3 = load ptr, ptr %2, align 8
  %4 = getelementptr inbounds nuw %"class.clang::ASTRecordReader", ptr %3, i32 0, i32 1
  %5 = load ptr, ptr %4, align 8
  %6 = getelementptr inbounds nuw %"class.clang::ASTRecordReader", ptr %3, i32 0, i32 2
  %7 = load ptr, ptr %6, align 8
  %8 = call noundef ptr @_ZN5clang9ASTReader8ReadStmtERNS_13serialization10ModuleFileE(ptr noundef nonnull align 8 dereferenceable(15968) %5, ptr noundef nonnull align 8 dereferenceable(3464) %7)
  ret ptr %8
}

; Function Attrs: mustprogress nounwind uwtable
define dso_local void @_ZN5clang13ASTDeclReader21VisitTopLevelStmtDeclEPNS_16TopLevelStmtDeclE(ptr noundef nonnull align 8 dereferenceable(89) %0, ptr noundef %1) #0 align 2 {
  %3 = alloca ptr, align 8
  %4 = alloca ptr, align 8
  store ptr %0, ptr %3, align 8
  store ptr %1, ptr %4, align 8
  %5 = load ptr, ptr %3, align 8
  %6 = load ptr, ptr %4, align 8
  call void @_ZN5clang13ASTDeclReader9VisitDeclEPNS_4DeclE(ptr noundef nonnull align 8 dereferenceable(89) %5, ptr noundef %6)
  %7 = getelementptr inbounds nuw %"class.clang::ASTDeclReader", ptr %5, i32 0, i32 2
  %8 = load ptr, ptr %7, align 8
  %9 = call noundef ptr @_ZN5clang15ASTRecordReader8readStmtEv(ptr noundef nonnull align 8 dereferenceable(560) %8)
  %10 = load ptr, ptr %4, align 8
  %11 = getelementptr inbounds nuw %"class.clang::TopLevelStmtDecl", ptr %10, i32 0, i32 3
  store ptr %9, ptr %11, align 8
  ret void
}