; Function Attrs: mustprogress nounwind uwtable
define dso_local void @_ZN5clang13ASTDeclReader21VisitTopLevelStmtDeclEPNS_16TopLevelStmtDeclE(ptr nocapture noundef nonnull align 8 dereferenceable(89) %0, ptr noundef %1) local_unnamed_addr #1 align 2 {
  tail call void @_ZN5clang13ASTDeclReader9VisitDeclEPNS_4DeclE(ptr noundef nonnull align 8 dereferenceable(89) %0, ptr noundef %1)
  %3 = getelementptr inbounds nuw i8, ptr %0, i64 16
  %4 = load ptr, ptr %3, align 8
  %5 = getelementptr inbounds nuw i8, ptr %4, i64 8
  %6 = load ptr, ptr %5, align 8
  %7 = getelementptr inbounds nuw i8, ptr %4, i64 16
  %8 = load ptr, ptr %7, align 8
  %9 = tail call noundef ptr @_ZN5clang9ASTReader8ReadStmtERNS_13serialization10ModuleFileE(ptr noundef nonnull align 8 dereferenceable(15968) %6, ptr noundef nonnull align 8 dereferenceable(3464) %8) #26
  %10 = getelementptr inbounds nuw i8, ptr %1, i64 72
  store ptr %9, ptr %10, align 8
  ret void
}